; Function Attrs: mustprogress nofree norecurse nosync nounwind willreturn memory(argmem: readwrite) uwtable
define i32 @ufmt_getArrayLength_75(ptr nocapture noundef readonly %fmt, ptr nocapture noundef %status) local_unnamed_addr #12 {
entry:
  %fType.i = getelementptr inbounds i8, ptr %fmt, i64 40
  %0 = load i32, ptr %fType.i, align 8
  %cmp.not.i = icmp eq i32 %0, 4
  br i1 %cmp.not.i, label %if.end.i, label %if.then.i

if.then.i:                                        ; preds = %entry
  %1 = load i32, ptr %status, align 4
  %cmp.i.i.i = icmp sgt i32 %1, 0
  br i1 %cmp.i.i.i, label %_ZNK6icu_7511Formattable8getArrayERiR10UErrorCode.exit, label %if.then.i.i

if.then.i.i:                                      ; preds = %if.then.i
  store i32 3, ptr %status, align 4
  br label %_ZNK6icu_7511Formattable8getArrayERiR10UErrorCode.exit

if.end.i:                                         ; preds = %entry
  %fCount.i = getelementptr inbounds i8, ptr %fmt, i64 16
  %2 = load i32, ptr %fCount.i, align 8
  br label %_ZNK6icu_7511Formattable8getArrayERiR10UErrorCode.exit

_ZNK6icu_7511Formattable8getArrayERiR10UErrorCode.exit: ; preds = %if.then.i, %if.then.i.i, %if.end.i
  %count.0 = phi i32 [ %2, %if.end.i ], [ 0, %if.then.i.i ], [ 0, %if.then.i ]
  ret i32 %count.0
}